target datalayout = "e-m:e-p270:32:32-p271:32:32-p272:64:64-i64:64-i128:128-f80:128-n8:16:32:64-S128"
target triple = "x86_64-pc-linux-gnu"

%class.symbol = type { ptr }
%"class.datatype::accessor" = type { %class.symbol, %class.obj_ref, i32, ptr }
%class.obj_ref = type { ptr, ptr }
%class.ast_translation = type <{ ptr, ptr, %class.svector.46, %class.ptr_vector.48, %class.ptr_vector.48, %class.obj_map.50, i32, i32, i32, i32, i32, [4 x i8] }>
%class.svector.46 = type { %class.vector.47 }
%class.vector.47 = type { ptr }
%class.ptr_vector.48 = type { %class.vector.49 }
%class.vector.49 = type { ptr }
%class.obj_map.50 = type { %class.core_hashtable.51 }
%class.core_hashtable.51 = type <{ ptr, i32, i32, i32, [4 x i8] }>
%class.ast = type { i32, i32, i32, i32 }

; Function Attrs: mustprogress nounwind uwtable
define linkonce_odr hidden void @_ZN3ast7inc_refEv(ptr noundef nonnull align 4 dereferenceable(16) %0) #5 comdat align 2 {
  %2 = alloca ptr, align 8
  store ptr %0, ptr %2, align 8, !tbaa !83
  %3 = load ptr, ptr %2, align 8
  %4 = getelementptr inbounds nuw %class.ast, ptr %3, i32 0, i32 2
  %5 = load i32, ptr %4, align 4, !tbaa !586
  %6 = add i32 %5, 1
  store i32 %6, ptr %4, align 4, !tbaa !586
  ret void
}

; Function Attrs: mustprogress uwtable
define linkonce_odr hidden void @_ZN11ast_manager7inc_refEP3ast(ptr noundef nonnull align 8 dereferenceable(976) %0, ptr noundef %1) #4 comdat align 2 {
  %3 = alloca ptr, align 8
  %4 = alloca ptr, align 8
  store ptr %0, ptr %3, align 8, !tbaa !25
  store ptr %1, ptr %4, align 8, !tbaa !83
  %5 = load ptr, ptr %4, align 8, !tbaa !83
  %6 = icmp ne ptr %5, null
  br i1 %6, label %7, label %9

7:                                                ; preds = %2
  %8 = load ptr, ptr %4, align 8, !tbaa !83
  call void @_ZN3ast7inc_refEv(ptr noundef nonnull align 4 dereferenceable(16) %8)
  br label %9

9:                                                ; preds = %7, %2
  ret void
}

; Function Attrs: mustprogress uwtable
define linkonce_odr hidden void @_ZN7obj_refI4sort11ast_managerE7inc_refEv(ptr noundef nonnull align 8 dereferenceable(16) %0) #4 comdat align 2 {
  %2 = alloca ptr, align 8
  store ptr %0, ptr %2, align 8, !tbaa !19
  %3 = load ptr, ptr %2, align 8
  %4 = getelementptr inbounds nuw %class.obj_ref, ptr %3, i32 0, i32 0
  %5 = load ptr, ptr %4, align 8, !tbaa !21
  %6 = icmp ne ptr %5, null
  br i1 %6, label %7, label %12

7:                                                ; preds = %1
  %8 = getelementptr inbounds nuw %class.obj_ref, ptr %3, i32 0, i32 1
  %9 = load ptr, ptr %8, align 8, !tbaa !24
  %10 = getelementptr inbounds nuw %class.obj_ref, ptr %3, i32 0, i32 0
  %11 = load ptr, ptr %10, align 8, !tbaa !21
  call void @_ZN11ast_manager7inc_refEP3ast(ptr noundef nonnull align 8 dereferenceable(976) %9, ptr noundef %11)
  br label %12

12:                                               ; preds = %7, %1
  ret void
}

; Function Attrs: mustprogress nounwind uwtable
define linkonce_odr hidden noundef nonnull align 8 dereferenceable(976) ptr @_ZNK15ast_translation4fromEv(ptr noundef nonnull align 8 dereferenceable(84) %0) #5 comdat align 2 {
  %2 = alloca ptr, align 8
  store ptr %0, ptr %2, align 8, !tbaa !70
  %3 = load ptr, ptr %2, align 8
  %4 = getelementptr inbounds nuw %class.ast_translation, ptr %3, i32 0, i32 0
  %5 = load ptr, ptr %4, align 8, !tbaa !932
  ret ptr %5
}

; Function Attrs: mustprogress uwtable
define linkonce_odr hidden void @_ZN7obj_refI4sort11ast_managerEC2EPS0_RS1_(ptr noundef nonnull align 8 dereferenceable(16) %0, ptr noundef %1, ptr noundef nonnull align 8 dereferenceable(976) %2) unnamed_addr #4 comdat align 2 {
  %4 = alloca ptr, align 8
  %5 = alloca ptr, align 8
  %6 = alloca ptr, align 8
  store ptr %0, ptr %4, align 8, !tbaa !19
  store ptr %1, ptr %5, align 8, !tbaa !23
  store ptr %2, ptr %6, align 8, !tbaa !25
  %7 = load ptr, ptr %4, align 8
  %8 = getelementptr inbounds nuw %class.obj_ref, ptr %7, i32 0, i32 0
  %9 = load ptr, ptr %5, align 8, !tbaa !23
  store ptr %9, ptr %8, align 8, !tbaa !21
  %10 = getelementptr inbounds nuw %class.obj_ref, ptr %7, i32 0, i32 1
  %11 = load ptr, ptr %6, align 8, !tbaa !25
  store ptr %11, ptr %10, align 8, !tbaa !25
  call void @_ZN7obj_refI4sort11ast_managerE7inc_refEv(ptr noundef nonnull align 8 dereferenceable(16) %7)
  ret void
}

; Function Attrs: mustprogress uwtable
define linkonce_odr hidden noundef ptr @_ZN15ast_translation9translateI4sortEEPT_PKS2_(ptr noundef nonnull align 8 dereferenceable(84) %0, ptr noundef %1) #4 comdat align 2 {
  %3 = alloca ptr, align 8
  %4 = alloca ptr, align 8
  %5 = alloca ptr, align 8
  %6 = alloca ptr, align 8
  store ptr %0, ptr %4, align 8, !tbaa !70
  store ptr %1, ptr %5, align 8, !tbaa !23
  %7 = load ptr, ptr %4, align 8
  %8 = call noundef nonnull align 8 dereferenceable(976) ptr @_ZNK15ast_translation4fromEv(ptr noundef nonnull align 8 dereferenceable(84) %7)
  %9 = call noundef nonnull align 8 dereferenceable(976) ptr @_ZNK15ast_translation2toEv(ptr noundef nonnull align 8 dereferenceable(84) %7)
  %10 = icmp eq ptr %8, %9
  br i1 %10, label %11, label %13

11:                                               ; preds = %2
  %12 = load ptr, ptr %5, align 8, !tbaa !23
  store ptr %12, ptr %3, align 8
  br label %17

13:                                               ; preds = %2
  call void @llvm.lifetime.start.p0(i64 8, ptr %6) #3
  %14 = load ptr, ptr %5, align 8, !tbaa !23
  %15 = call noundef ptr @_ZN15ast_translation7processEPK3ast(ptr noundef nonnull align 8 dereferenceable(84) %7, ptr noundef %14)
  store ptr %15, ptr %6, align 8, !tbaa !83
  %16 = load ptr, ptr %6, align 8, !tbaa !83
  store ptr %16, ptr %3, align 8
  call void @llvm.lifetime.end.p0(i64 8, ptr %6) #3
  br label %17

17:                                               ; preds = %13, %11
  %18 = load ptr, ptr %3, align 8
  ret ptr %18
}

; Function Attrs: mustprogress uwtable
define linkonce_odr hidden void @_ZN8datatype8accessorC2ER11ast_managerRK6symbolP4sort(ptr noundef nonnull align 8 dereferenceable(40) %0, ptr noundef nonnull align 8 dereferenceable(976) %1, ptr noundef nonnull align 8 dereferenceable(8) %2, ptr noundef %3) unnamed_addr #4 comdat align 2 {
  %5 = alloca ptr, align 8
  %6 = alloca ptr, align 8
  %7 = alloca ptr, align 8
  %8 = alloca ptr, align 8
  store ptr %0, ptr %5, align 8, !tbaa !3
  store ptr %1, ptr %6, align 8, !tbaa !25
  store ptr %2, ptr %7, align 8, !tbaa !49
  store ptr %3, ptr %8, align 8, !tbaa !23
  %9 = load ptr, ptr %5, align 8
  %10 = getelementptr inbounds nuw %"class.datatype::accessor", ptr %9, i32 0, i32 0
  %11 = load ptr, ptr %7, align 8, !tbaa !49
  call void @llvm.memcpy.p0.p0.i64(ptr align 8 %10, ptr align 8 %11, i64 8, i1 false), !tbaa.struct !85
  %12 = getelementptr inbounds nuw %"class.datatype::accessor", ptr %9, i32 0, i32 1
  %13 = load ptr, ptr %8, align 8, !tbaa !23
  %14 = load ptr, ptr %6, align 8, !tbaa !25
  call void @_ZN7obj_refI4sort11ast_managerEC2EPS0_RS1_(ptr noundef nonnull align 8 dereferenceable(16) %12, ptr noundef %13, ptr noundef nonnull align 8 dereferenceable(976) %14)
  %15 = getelementptr inbounds nuw %"class.datatype::accessor", ptr %9, i32 0, i32 2
  store i32 -1, ptr %15, align 8, !tbaa !10
  %16 = getelementptr inbounds nuw %"class.datatype::accessor", ptr %9, i32 0, i32 3
  store ptr null, ptr %16, align 8, !tbaa !30
  ret void
}

; Function Attrs: inlinehint mustprogress nounwind uwtable
define linkonce_odr hidden noundef ptr @_Z7to_sortP3ast(ptr noundef %0) #7 comdat {
  %2 = alloca ptr, align 8
  store ptr %0, ptr %2, align 8, !tbaa !83
  %3 = load ptr, ptr %2, align 8, !tbaa !83
  ret ptr %3
}

; Function Attrs: mustprogress uwtable
define linkonce_odr hidden noundef ptr @_ZN15ast_translationclI4sortEEPT_PKS2_(ptr noundef nonnull align 8 dereferenceable(84) %0, ptr noundef %1) #4 comdat align 2 {
  %3 = alloca ptr, align 8
  %4 = alloca ptr, align 8
  store ptr %0, ptr %3, align 8, !tbaa !70
  store ptr %1, ptr %4, align 8, !tbaa !23
  %5 = load ptr, ptr %3, align 8
  %6 = load ptr, ptr %4, align 8, !tbaa !23
  %7 = call noundef ptr @_ZN15ast_translation9translateI4sortEEPT_PKS2_(ptr noundef nonnull align 8 dereferenceable(84) %5, ptr noundef %6)
  ret ptr %7
}

; Function Attrs: mustprogress nounwind uwtable
define linkonce_odr hidden noundef ptr @_ZNK7obj_refI4sort11ast_managerE3getEv(ptr noundef nonnull align 8 dereferenceable(16) %0) #5 comdat align 2 {
  %2 = alloca ptr, align 8
  store ptr %0, ptr %2, align 8, !tbaa !19
  %3 = load ptr, ptr %2, align 8
  %4 = getelementptr inbounds nuw %class.obj_ref, ptr %3, i32 0, i32 0
  %5 = load ptr, ptr %4, align 8, !tbaa !21
  ret ptr %5
}

; Function Attrs: mustprogress nounwind uwtable
define linkonce_odr hidden noundef nonnull align 8 dereferenceable(8) ptr @_ZNK8datatype8accessor4nameEv(ptr noundef nonnull align 8 dereferenceable(40) %0) #5 comdat align 2 {
  %2 = alloca ptr, align 8
  store ptr %0, ptr %2, align 8, !tbaa !3
  %3 = load ptr, ptr %2, align 8
  %4 = getelementptr inbounds nuw %"class.datatype::accessor", ptr %3, i32 0, i32 0
  ret ptr %4
}

; Function Attrs: mustprogress nounwind uwtable
define linkonce_odr hidden noundef nonnull align 8 dereferenceable(976) ptr @_ZNK15ast_translation2toEv(ptr noundef nonnull align 8 dereferenceable(84) %0) #5 comdat align 2 {
  %2 = alloca ptr, align 8
  store ptr %0, ptr %2, align 8, !tbaa !70
  %3 = load ptr, ptr %2, align 8
  %4 = getelementptr inbounds nuw %class.ast_translation, ptr %3, i32 0, i32 1
  %5 = load ptr, ptr %4, align 8, !tbaa !72
  ret ptr %5
}

; Function Attrs: mustprogress uwtable
define hidden noundef ptr @_ZN8datatype8accessor9translateER15ast_translation(ptr noundef nonnull align 8 dereferenceable(40) %0, ptr noundef nonnull align 8 dereferenceable(84) %1) #4 align 2 {
  %3 = alloca ptr, align 8
  %4 = alloca ptr, align 8
  store ptr %0, ptr %3, align 8, !tbaa !3
  store ptr %1, ptr %4, align 8, !tbaa !70
  %5 = load ptr, ptr %3, align 8
  %6 = call noalias noundef ptr @_ZN6memory8allocateEm(i64 noundef 40)
  %7 = load ptr, ptr %4, align 8, !tbaa !70
  %8 = call noundef nonnull align 8 dereferenceable(976) ptr @_ZNK15ast_translation2toEv(ptr noundef nonnull align 8 dereferenceable(84) %7)
  %9 = call noundef nonnull align 8 dereferenceable(8) ptr @_ZNK8datatype8accessor4nameEv(ptr noundef nonnull align 8 dereferenceable(40) %5)
  %10 = load ptr, ptr %4, align 8, !tbaa !70
  %11 = getelementptr inbounds nuw %"class.datatype::accessor", ptr %5, i32 0, i32 1
  %12 = call noundef ptr @_ZNK7obj_refI4sort11ast_managerE3getEv(ptr noundef nonnull align 8 dereferenceable(16) %11)
  %13 = call noundef ptr @_ZN15ast_translationclI4sortEEPT_PKS2_(ptr noundef nonnull align 8 dereferenceable(84) %10, ptr noundef %12)
  %14 = call noundef ptr @_Z7to_sortP3ast(ptr noundef %13)
  call void @_ZN8datatype8accessorC2ER11ast_managerRK6symbolP4sort(ptr noundef nonnull align 8 dereferenceable(40) %6, ptr noundef nonnull align 8 dereferenceable(976) %8, ptr noundef nonnull align 8 dereferenceable(8) %9, ptr noundef %14)
  ret ptr %6
}