; Function Attrs: mustprogress uwtable
define hidden noalias noundef ptr @_ZN8datatype8accessor9translateER15ast_translation(ptr noundef nonnull readonly align 8 captures(none) dereferenceable(40) %0, ptr noundef nonnull align 8 dereferenceable(84) %1) local_unnamed_addr #4 align 2 {
  %3 = tail call noalias noundef ptr @_ZN6memory8allocateEm(i64 noundef 40)
  %4 = getelementptr inbounds nuw i8, ptr %1, i64 8
  %5 = load ptr, ptr %4, align 8, !tbaa !75
  %6 = getelementptr inbounds nuw i8, ptr %0, i64 8
  %7 = load ptr, ptr %6, align 8, !tbaa !3
  %8 = load ptr, ptr %1, align 8, !tbaa !86
  %9 = icmp eq ptr %8, %5
  br i1 %9, label %_ZN15ast_translationclI4sortEEPT_PKS2_.exit, label %10

10:                                               ; preds = %2
  %11 = tail call noundef ptr @_ZN15ast_translation7processEPK3ast(ptr noundef nonnull align 8 dereferenceable(84) %1, ptr noundef %7)
  br label %_ZN15ast_translationclI4sortEEPT_PKS2_.exit

_ZN15ast_translationclI4sortEEPT_PKS2_.exit:      ; preds = %2, %10
  %.0.i.i = phi ptr [ %11, %10 ], [ %7, %2 ]
  %12 = load i64, ptr %0, align 8, !tbaa !34
  store i64 %12, ptr %3, align 8, !tbaa !34
  %13 = getelementptr inbounds nuw i8, ptr %3, i64 8
  store ptr %.0.i.i, ptr %13, align 8, !tbaa !3
  %14 = getelementptr inbounds nuw i8, ptr %3, i64 16
  store ptr %5, ptr %14, align 8, !tbaa !33
  %.not.i.i.i = icmp eq ptr %.0.i.i, null
  br i1 %.not.i.i.i, label %_ZN8datatype8accessorC2ER11ast_managerRK6symbolP4sort.exit, label %_ZN11ast_manager7inc_refEP3ast.exit.i.i.i

_ZN11ast_manager7inc_refEP3ast.exit.i.i.i:        ; preds = %_ZN15ast_translationclI4sortEEPT_PKS2_.exit
  %15 = getelementptr inbounds nuw i8, ptr %.0.i.i, i64 8
  %16 = load i32, ptr %15, align 4, !tbaa !21
  %17 = add i32 %16, 1
  store i32 %17, ptr %15, align 4, !tbaa !21
  br label %_ZN8datatype8accessorC2ER11ast_managerRK6symbolP4sort.exit

_ZN8datatype8accessorC2ER11ast_managerRK6symbolP4sort.exit: ; preds = %_ZN15ast_translationclI4sortEEPT_PKS2_.exit, %_ZN11ast_manager7inc_refEP3ast.exit.i.i.i
  %18 = getelementptr inbounds nuw i8, ptr %3, i64 24
  store i32 -1, ptr %18, align 8, !tbaa !10
  %19 = getelementptr inbounds nuw i8, ptr %3, i64 32
  store ptr null, ptr %19, align 8, !tbaa !26
  ret ptr %3
}